target datalayout = "e-m:e-p270:32:32-p271:32:32-p272:64:64-i64:64-i128:128-f80:128-n8:16:32:64-S128"
target triple = "x86_64-pc-linux-gnu"

; Function Attrs: mustprogress nounwind uwtable
define linkonce_odr dso_local noundef zeroext i1 @_ZN4absl14ascii_internal14AsciiInAZRangeILb0EEEbh(i8 noundef zeroext %0) #2 comdat {
  %2 = alloca i8, align 1
  %3 = alloca i8, align 1
  %4 = alloca i8, align 1
  %5 = alloca i8, align 1
  store i8 %0, ptr %2, align 1, !tbaa !20
  call void @llvm.lifetime.start.p0(i64 1, ptr %3) #9
  store i8 -63, ptr %3, align 1, !tbaa !20
  call void @llvm.lifetime.start.p0(i64 1, ptr %4) #9
  store i8 -102, ptr %4, align 1, !tbaa !20
  call void @llvm.lifetime.start.p0(i64 1, ptr %5) #9
  %6 = load i8, ptr %2, align 1, !tbaa !20
  %7 = zext i8 %6 to i32
  %8 = sub nsw i32 %7, 193
  %9 = trunc i32 %8 to i8
  store i8 %9, ptr %5, align 1, !tbaa !20
  %10 = load i8, ptr %5, align 1, !tbaa !20
  %11 = sext i8 %10 to i32
  %12 = icmp slt i32 %11, -102
  call void @llvm.lifetime.end.p0(i64 1, ptr %5) #9
  call void @llvm.lifetime.end.p0(i64 1, ptr %4) #9
  call void @llvm.lifetime.end.p0(i64 1, ptr %3) #9
  ret i1 %12
}

; Function Attrs: mustprogress nounwind uwtable
define linkonce_odr dso_local noundef zeroext i1 @_ZN4absl14ascii_internal19AsciiInAZRangeNaiveILb0EEEbh(i8 noundef zeroext %0) #2 comdat {
  %2 = alloca i8, align 1
  %3 = alloca i8, align 1
  %4 = alloca i8, align 1
  store i8 %0, ptr %2, align 1, !tbaa !20
  call void @llvm.lifetime.start.p0(i64 1, ptr %3) #9
  store i8 65, ptr %3, align 1, !tbaa !20
  call void @llvm.lifetime.start.p0(i64 1, ptr %4) #9
  store i8 90, ptr %4, align 1, !tbaa !20
  %5 = load i8, ptr %2, align 1, !tbaa !20
  %6 = zext i8 %5 to i32
  %7 = icmp sle i32 65, %6
  br i1 %7, label %8, label %12

8:                                                ; preds = %1
  %9 = load i8, ptr %2, align 1, !tbaa !20
  %10 = zext i8 %9 to i32
  %11 = icmp sle i32 %10, 90
  br label %12

12:                                               ; preds = %8, %1
  %13 = phi i1 [ false, %1 ], [ %11, %8 ]
  call void @llvm.lifetime.end.p0(i64 1, ptr %4) #9
  call void @llvm.lifetime.end.p0(i64 1, ptr %3) #9
  ret i1 %13
}

; Function Attrs: mustprogress uwtable
define linkonce_odr dso_local void @_ZN4absl14ascii_internal20AsciiStrCaseFoldImplILb0ELb0EEEvPcPKcm(ptr noundef %0, ptr noundef %1, i64 noundef %2) #0 comdat {
  %4 = alloca ptr, align 8
  %5 = alloca ptr, align 8
  %6 = alloca i64, align 8
  %7 = alloca i8, align 1
  %8 = alloca i64, align 8
  %9 = alloca i8, align 1
  store ptr %0, ptr %4, align 8, !tbaa !4
  store ptr %1, ptr %5, align 8, !tbaa !4
  store i64 %2, ptr %6, align 8, !tbaa !9
  call void @llvm.lifetime.start.p0(i64 1, ptr %7) #9
  store i8 32, ptr %7, align 1, !tbaa !20
  call void @llvm.lifetime.start.p0(i64 8, ptr %8) #9
  store i64 0, ptr %8, align 8, !tbaa !9
  br label %10

10:                                               ; preds = %31, %3
  %11 = load i64, ptr %8, align 8, !tbaa !9
  %12 = load i64, ptr %6, align 8, !tbaa !9
  %13 = icmp ult i64 %11, %12
  br i1 %13, label %15, label %14

14:                                               ; preds = %10
  call void @llvm.lifetime.end.p0(i64 8, ptr %8) #9
  br label %34

15:                                               ; preds = %10
  call void @llvm.lifetime.start.p0(i64 1, ptr %9) #9
  %16 = load ptr, ptr %5, align 8, !tbaa !4
  %17 = load i64, ptr %8, align 8, !tbaa !9
  %18 = getelementptr inbounds nuw i8, ptr %16, i64 %17
  %19 = load i8, ptr %18, align 1, !tbaa !20
  store i8 %19, ptr %9, align 1, !tbaa !20
  %20 = load i8, ptr %9, align 1, !tbaa !20
  %21 = call noundef zeroext i1 @_ZN4absl14ascii_internal14AsciiInAZRangeILb0EEEbh(i8 noundef zeroext %20)
  %22 = select i1 %21, i32 32, i32 0
  %23 = load i8, ptr %9, align 1, !tbaa !20
  %24 = zext i8 %23 to i32
  %25 = xor i32 %24, %22
  %26 = trunc i32 %25 to i8
  store i8 %26, ptr %9, align 1, !tbaa !20
  %27 = load i8, ptr %9, align 1, !tbaa !20
  %28 = load ptr, ptr %4, align 8, !tbaa !4
  %29 = load i64, ptr %8, align 8, !tbaa !9
  %30 = getelementptr inbounds nuw i8, ptr %28, i64 %29
  store i8 %27, ptr %30, align 1, !tbaa !20
  call void @llvm.lifetime.end.p0(i64 1, ptr %9) #9
  br label %31

31:                                               ; preds = %15
  %32 = load i64, ptr %8, align 8, !tbaa !9
  %33 = add i64 %32, 1
  store i64 %33, ptr %8, align 8, !tbaa !9
  br label %10, !llvm.loop !30

34:                                               ; preds = %14
  call void @llvm.lifetime.end.p0(i64 1, ptr %7) #9
  ret void
}

; Function Attrs: mustprogress uwtable
define linkonce_odr dso_local void @_ZN4absl14ascii_internal20AsciiStrCaseFoldImplILb0ELb1EEEvPcPKcm(ptr noundef %0, ptr noundef %1, i64 noundef %2) #0 comdat {
  %4 = alloca ptr, align 8
  %5 = alloca ptr, align 8
  %6 = alloca i64, align 8
  %7 = alloca i8, align 1
  %8 = alloca i64, align 8
  %9 = alloca i8, align 1
  store ptr %0, ptr %4, align 8, !tbaa !4
  store ptr %1, ptr %5, align 8, !tbaa !4
  store i64 %2, ptr %6, align 8, !tbaa !9
  call void @llvm.lifetime.start.p0(i64 1, ptr %7) #9
  store i8 32, ptr %7, align 1, !tbaa !20
  call void @llvm.lifetime.start.p0(i64 8, ptr %8) #9
  store i64 0, ptr %8, align 8, !tbaa !9
  br label %10

10:                                               ; preds = %31, %3
  %11 = load i64, ptr %8, align 8, !tbaa !9
  %12 = load i64, ptr %6, align 8, !tbaa !9
  %13 = icmp ult i64 %11, %12
  br i1 %13, label %15, label %14

14:                                               ; preds = %10
  call void @llvm.lifetime.end.p0(i64 8, ptr %8) #9
  br label %34

15:                                               ; preds = %10
  call void @llvm.lifetime.start.p0(i64 1, ptr %9) #9
  %16 = load ptr, ptr %5, align 8, !tbaa !4
  %17 = load i64, ptr %8, align 8, !tbaa !9
  %18 = getelementptr inbounds nuw i8, ptr %16, i64 %17
  %19 = load i8, ptr %18, align 1, !tbaa !20
  store i8 %19, ptr %9, align 1, !tbaa !20
  %20 = load i8, ptr %9, align 1, !tbaa !20
  %21 = call noundef zeroext i1 @_ZN4absl14ascii_internal19AsciiInAZRangeNaiveILb0EEEbh(i8 noundef zeroext %20)
  %22 = select i1 %21, i32 32, i32 0
  %23 = load i8, ptr %9, align 1, !tbaa !20
  %24 = zext i8 %23 to i32
  %25 = xor i32 %24, %22
  %26 = trunc i32 %25 to i8
  store i8 %26, ptr %9, align 1, !tbaa !20
  %27 = load i8, ptr %9, align 1, !tbaa !20
  %28 = load ptr, ptr %4, align 8, !tbaa !4
  %29 = load i64, ptr %8, align 8, !tbaa !9
  %30 = getelementptr inbounds nuw i8, ptr %28, i64 %29
  store i8 %27, ptr %30, align 1, !tbaa !20
  call void @llvm.lifetime.end.p0(i64 1, ptr %9) #9
  br label %31

31:                                               ; preds = %15
  %32 = load i64, ptr %8, align 8, !tbaa !9
  %33 = add i64 %32, 1
  store i64 %33, ptr %8, align 8, !tbaa !9
  br label %10, !llvm.loop !29

34:                                               ; preds = %14
  call void @llvm.lifetime.end.p0(i64 1, ptr %7) #9
  ret void
}

; Function Attrs: mustprogress uwtable
define linkonce_odr dso_local void @_ZN4absl14ascii_internal16AsciiStrCaseFoldILb0EEEvPcPKcm(ptr noundef %0, ptr noundef %1, i64 noundef %2) #0 comdat {
  %4 = alloca ptr, align 8
  %5 = alloca ptr, align 8
  %6 = alloca i64, align 8
  store ptr %0, ptr %4, align 8, !tbaa !4
  store ptr %1, ptr %5, align 8, !tbaa !4
  store i64 %2, ptr %6, align 8, !tbaa !9
  %7 = load i64, ptr %6, align 8, !tbaa !9
  %8 = icmp ult i64 %7, 16
  br i1 %8, label %9, label %13

9:                                                ; preds = %3
  %10 = load ptr, ptr %4, align 8, !tbaa !4
  %11 = load ptr, ptr %5, align 8, !tbaa !4
  %12 = load i64, ptr %6, align 8, !tbaa !9
  call void @_ZN4absl14ascii_internal20AsciiStrCaseFoldImplILb0ELb1EEEvPcPKcm(ptr noundef %10, ptr noundef %11, i64 noundef %12)
  br label %17

13:                                               ; preds = %3
  %14 = load ptr, ptr %4, align 8, !tbaa !4
  %15 = load ptr, ptr %5, align 8, !tbaa !4
  %16 = load i64, ptr %6, align 8, !tbaa !9
  call void @_ZN4absl14ascii_internal20AsciiStrCaseFoldImplILb0ELb0EEEvPcPKcm(ptr noundef %14, ptr noundef %15, i64 noundef %16)
  br label %17

17:                                               ; preds = %13, %9
  ret void
}

; Function Attrs: mustprogress uwtable
define dso_local void @_ZN4absl14ascii_internal15AsciiStrToLowerEPcPKcm(ptr noundef %0, ptr noundef %1, i64 noundef %2) #0 {
  %4 = alloca ptr, align 8
  %5 = alloca ptr, align 8
  %6 = alloca i64, align 8
  store ptr %0, ptr %4, align 8, !tbaa !4
  store ptr %1, ptr %5, align 8, !tbaa !4
  store i64 %2, ptr %6, align 8, !tbaa !9
  %7 = load ptr, ptr %4, align 8, !tbaa !4
  %8 = load ptr, ptr %5, align 8, !tbaa !4
  %9 = load i64, ptr %6, align 8, !tbaa !9
  call void @_ZN4absl14ascii_internal16AsciiStrCaseFoldILb0EEEvPcPKcm(ptr noundef %7, ptr noundef %8, i64 noundef %9)
  ret void
}